; ModuleID = 'source-C-CXX/2/3267.c'
source_filename = "source-C-CXX/2/3267.c"
target datalayout = "e-m:e-p270:32:32-p271:32:32-p272:64:64-i64:64-f80:128-n8:16:32:64-S128"
target triple = "x86_64-pc-linux-gnu"

@.str = private unnamed_addr constant [5 x i8] c"%d%d\00", align 1
@.str.1 = private unnamed_addr constant [3 x i8] c"%d\00", align 1
@.str.2 = private unnamed_addr constant [3 x i8] c"no\00", align 1
@.str.3 = private unnamed_addr constant [4 x i8] c"yes\00", align 1

; Function Attrs: nofree nounwind sspstrong uwtable
define dso_local i32 @main() local_unnamed_addr #0 {
  %1 = alloca i32, align 4
  %2 = alloca i32, align 4
  %3 = alloca [1000 x i32], align 16
  %4 = bitcast i32* %1 to i8*
  call void @llvm.lifetime.start.p0i8(i64 4, i8* nonnull %4) #3
  %5 = bitcast i32* %2 to i8*
  call void @llvm.lifetime.start.p0i8(i64 4, i8* nonnull %5) #3
  %6 = bitcast [1000 x i32]* %3 to i8*
  call void @llvm.lifetime.start.p0i8(i64 4000, i8* nonnull %6) #3
  %7 = call i32 (i8*, ...) @__isoc99_scanf(i8* getelementptr inbounds ([5 x i8], [5 x i8]* @.str, i64 0, i64 0), i32* nonnull %1, i32* nonnull %2)
  %8 = load i32, i32* %1, align 4, !tbaa !5
  %9 = icmp sgt i32 %8, 0
  br i1 %9, label %16, label %50

10:                                               ; preds = %16
  %11 = load i32, i32* %2, align 4
  %12 = icmp slt i32 %21, 2
  br i1 %12, label %50, label %13

13:                                               ; preds = %10
  %14 = add nsw i32 %21, -1
  %15 = zext i32 %14 to i64
  br label %24

16:                                               ; preds = %0, %16
  %17 = phi i64 [ %20, %16 ], [ 0, %0 ]
  %18 = getelementptr inbounds [1000 x i32], [1000 x i32]* %3, i64 0, i64 %17
  %19 = call i32 (i8*, ...) @__isoc99_scanf(i8* getelementptr inbounds ([3 x i8], [3 x i8]* @.str.1, i64 0, i64 0), i32* nonnull %18)
  %20 = add nuw nsw i64 %17, 1
  %21 = load i32, i32* %1, align 4, !tbaa !5
  %22 = sext i32 %21 to i64
  %23 = icmp slt i64 %20, %22
  br i1 %23, label %16, label %10, !llvm.loop !9

24:                                               ; preds = %13, %44
  %25 = phi i64 [ 0, %13 ], [ %28, %44 ]
  %26 = phi i64 [ 1, %13 ], [ %46, %44 ]
  %27 = phi i32 [ 0, %13 ], [ %45, %44 ]
  %28 = add nuw nsw i64 %25, 1
  %29 = trunc i64 %28 to i32
  %30 = icmp sgt i32 %21, %29
  br i1 %30, label %31, label %44

31:                                               ; preds = %24
  %32 = getelementptr inbounds [1000 x i32], [1000 x i32]* %3, i64 0, i64 %25
  %33 = load i32, i32* %32, align 4, !tbaa !5
  br label %37

34:                                               ; preds = %37
  %35 = trunc i64 %43 to i32
  %36 = icmp eq i32 %21, %35
  br i1 %36, label %44, label %37, !llvm.loop !11

37:                                               ; preds = %31, %34
  %38 = phi i64 [ %26, %31 ], [ %43, %34 ]
  %39 = getelementptr inbounds [1000 x i32], [1000 x i32]* %3, i64 0, i64 %38
  %40 = load i32, i32* %39, align 4, !tbaa !5
  %41 = add nsw i32 %40, %33
  %42 = icmp eq i32 %11, %41
  %43 = add nuw nsw i64 %38, 1
  br i1 %42, label %44, label %34

44:                                               ; preds = %34, %37, %24
  %45 = phi i32 [ %27, %24 ], [ 1, %37 ], [ %27, %34 ]
  %46 = add nuw nsw i64 %26, 1
  %47 = icmp eq i64 %28, %15
  br i1 %47, label %48, label %24, !llvm.loop !12

48:                                               ; preds = %44
  switch i32 %45, label %53 [
    i32 0, label %50
    i32 1, label %49
  ]

49:                                               ; preds = %48
  br label %50

50:                                               ; preds = %48, %10, %0, %49
  %51 = phi i8* [ getelementptr inbounds ([4 x i8], [4 x i8]* @.str.3, i64 0, i64 0), %49 ], [ getelementptr inbounds ([3 x i8], [3 x i8]* @.str.2, i64 0, i64 0), %0 ], [ getelementptr inbounds ([3 x i8], [3 x i8]* @.str.2, i64 0, i64 0), %10 ], [ getelementptr inbounds ([3 x i8], [3 x i8]* @.str.2, i64 0, i64 0), %48 ]
  %52 = call i32 (i8*, ...) @printf(i8* nonnull dereferenceable(1) %51)
  br label %53

53:                                               ; preds = %50, %48
  call void @llvm.lifetime.end.p0i8(i64 4000, i8* nonnull %6) #3
  call void @llvm.lifetime.end.p0i8(i64 4, i8* nonnull %5) #3
  call void @llvm.lifetime.end.p0i8(i64 4, i8* nonnull %4) #3
  ret i32 0
}

; Function Attrs: argmemonly mustprogress nofree nosync nounwind willreturn
declare void @llvm.lifetime.start.p0i8(i64 immarg, i8* nocapture) #1

; Function Attrs: nofree nounwind
declare noundef i32 @__isoc99_scanf(i8* nocapture noundef readonly, ...) local_unnamed_addr #2

; Function Attrs: nofree nounwind
declare noundef i32 @printf(i8* nocapture noundef readonly, ...) local_unnamed_addr #2

; Function Attrs: argmemonly mustprogress nofree nosync nounwind willreturn
declare void @llvm.lifetime.end.p0i8(i64 immarg, i8* nocapture) #1


!llvm.module.flags = !{!0, !1, !2, !3}
!llvm.ident = !{!4}

!0 = !{i32 1, !"wchar_size", i32 4}
!1 = !{i32 7, !"PIC Level", i32 2}
!2 = !{i32 7, !"PIE Level", i32 2}
!3 = !{i32 7, !"uwtable", i32 1}
!4 = !{!"clang version 13.0.0"}
!5 = !{!6, !6, i64 0}
!6 = !{!"int", !7, i64 0}
!7 = !{!"omnipotent char", !8, i64 0}
!8 = !{!"Simple C/C++ TBAA"}
!9 = distinct !{!9, !10}
!10 = !{!"llvm.loop.mustprogress"}
!11 = distinct !{!11, !10}
!12 = distinct !{!12, !10}
